; Function Attrs: mustprogress nofree nounwind uwtable
define void @_Z21printLambdaStateToLogP8_IO_FILEN3gmx8ArrayRefIKfEEb(ptr noundef %0, ptr readonly %1, ptr readnone %2, i1 noundef zeroext %3) local_unnamed_addr #14 {
  %.not = icmp eq ptr %0, null
  br i1 %.not, label %13, label %5

5:                                                ; preds = %4
  %.str.78..str.79 = select i1 %3, ptr @.str.78, ptr @.str.79
  %6 = tail call i32 (ptr, ptr, ...) @fprintf(ptr noundef nonnull %0, ptr noundef nonnull @.str.77, ptr noundef nonnull %.str.78..str.79) #20
  %.not1314 = icmp eq ptr %1, %2
  br i1 %.not1314, label %._crit_edge, label %.lr.ph

.lr.ph:                                           ; preds = %5, %.lr.ph
  %.sroa.0.015 = phi ptr [ %10, %.lr.ph ], [ %1, %5 ]
  %7 = load float, ptr %.sroa.0.015, align 4
  %8 = fpext float %7 to double
  %9 = tail call i32 (ptr, ptr, ...) @fprintf(ptr noundef nonnull %0, ptr noundef nonnull @.str.80, double noundef %8) #20
  %10 = getelementptr inbounds i8, ptr %.sroa.0.015, i64 4
  %.not13 = icmp eq ptr %10, %2
  br i1 %.not13, label %._crit_edge, label %.lr.ph

._crit_edge:                                      ; preds = %.lr.ph, %5
  %11 = select i1 %3, ptr @.str.82, ptr @.str.83
  %12 = tail call i32 (ptr, ptr, ...) @fprintf(ptr noundef nonnull %0, ptr noundef nonnull @.str.81, ptr noundef nonnull %11) #20
  br label %13

13:                                               ; preds = %._crit_edge, %4
  ret void
}